; Function Attrs: mustprogress nounwind uwtable
define internal fastcc noundef ptr @_ZN12_GLOBAL__N_122MemorySanitizerVisitor21findDppPoisonedOutputERN4llvm9IRBuilderINS1_14ConstantFolderENS1_24IRBuilderDefaultInserterEEEPNS1_5ValueEjj(ptr nocapture noundef nonnull readonly align 8 dereferenceable(1632) %0, ptr noundef nonnull align 8 dereferenceable(144) %1, ptr noundef %2, i32 noundef %3, i32 noundef %4) unnamed_addr #0 align 2 {
  %6 = alloca %"class.llvm::Twine", align 8
  %7 = alloca %"class.llvm::Twine", align 8
  %8 = alloca %"class.llvm::Twine", align 8
  %9 = getelementptr inbounds nuw i8, ptr %2, i64 8
  %10 = load ptr, ptr %9, align 8
  %11 = getelementptr inbounds nuw i8, ptr %10, i64 32
  %12 = load i32, ptr %11, align 8
  %13 = tail call fastcc noundef ptr @_ZN12_GLOBAL__N_122MemorySanitizerVisitor13createDppMaskEjj(ptr noundef nonnull align 8 dereferenceable(1632) %0, i32 noundef %12, i32 noundef %3)
  %14 = load ptr, ptr %9, align 8
  %15 = tail call noundef ptr @_ZN4llvm8Constant12getNullValueEPNS_4TypeE(ptr noundef %14) #23
  %16 = getelementptr inbounds nuw i8, ptr %6, i64 32
  store i16 257, ptr %16, align 8
  %17 = call noundef ptr @_ZN4llvm13IRBuilderBase12CreateSelectEPNS_5ValueES2_S2_RKNS_5TwineEPNS_11InstructionE(ptr noundef nonnull align 8 dereferenceable(128) %1, ptr noundef %13, ptr noundef nonnull %2, ptr noundef %15, ptr noundef nonnull align 8 dereferenceable(34) %6, ptr noundef null) #23
  %18 = call noundef ptr @_ZN4llvm13IRBuilderBase14CreateOrReduceEPNS_5ValueE(ptr noundef nonnull align 8 dereferenceable(128) %1, ptr noundef %17) #23
  %19 = getelementptr inbounds nuw i8, ptr %7, i64 32
  %20 = getelementptr inbounds nuw i8, ptr %7, i64 33
  store i8 1, ptr %20, align 1
  store ptr @.str.161, ptr %7, align 8
  store i8 3, ptr %19, align 8
  %21 = getelementptr inbounds nuw i8, ptr %18, i64 8
  %22 = load ptr, ptr %21, align 8
  %23 = call noundef ptr @_ZN4llvm8Constant12getNullValueEPNS_4TypeE(ptr noundef %22) #23
  %24 = call noundef ptr @_ZN4llvm13IRBuilderBase10CreateICmpENS_7CmpInst9PredicateEPNS_5ValueES4_RKNS_5TwineE(ptr noundef nonnull align 8 dereferenceable(128) %1, i32 noundef 32, ptr noundef %18, ptr noundef %23, ptr noundef nonnull align 8 dereferenceable(34) %7)
  %25 = call fastcc noundef ptr @_ZN12_GLOBAL__N_122MemorySanitizerVisitor13createDppMaskEjj(ptr noundef nonnull align 8 dereferenceable(1632) %0, i32 noundef %12, i32 noundef %4)
  %26 = getelementptr inbounds nuw i8, ptr %25, i64 8
  %27 = load ptr, ptr %26, align 8
  %28 = call noundef ptr @_ZN4llvm8Constant12getNullValueEPNS_4TypeE(ptr noundef %27) #23
  %29 = getelementptr inbounds nuw i8, ptr %8, i64 32
  store i16 257, ptr %29, align 8
  %30 = call noundef ptr @_ZN4llvm13IRBuilderBase12CreateSelectEPNS_5ValueES2_S2_RKNS_5TwineEPNS_11InstructionE(ptr noundef nonnull align 8 dereferenceable(128) %1, ptr noundef %24, ptr noundef %28, ptr noundef nonnull %25, ptr noundef nonnull align 8 dereferenceable(34) %8, ptr noundef null) #23
  ret ptr %30
}